target datalayout = "e-m:e-p270:32:32-p271:32:32-p272:64:64-i64:64-i128:128-f80:128-n8:16:32:64-S128"
target triple = "x86_64-pc-linux-gnu"

%class.PacketRangeGroupBox = type <{ %class.QGroupBox, ptr, ptr, i32, [4 x i8] }>
%class.QGroupBox = type { %class.QWidget }
%class.QWidget = type { %class.QObject, %class.QPaintDevice.base, ptr }
%class.QObject = type { ptr, %class.QScopedPointer }
%class.QScopedPointer = type { ptr }
%class.QPaintDevice.base = type <{ ptr, i16 }>
%struct.packet_range_tag = type { i32, i32, i32, i32, ptr, i32, ptr, i32, ptr, i32, i32, i32, i32, i32, i32, i32, i32, i32, i32, i32, i32, i32, i32, i32, i32, i32, i32, i32, i32, i32, i32, i32, i32, i32, i32, i32, ptr, ptr, ptr, ptr, ptr, ptr, ptr, ptr, i32, i32 }

; Function Attrs: mustprogress uwtable
define void @_ZN19PacketRangeGroupBox20processButtonToggledEb14packet_range_e(ptr noundef nonnull align 8 dereferenceable(60) %0, i1 noundef zeroext %1, i32 noundef %2) #0 align 2 {
  %4 = alloca ptr, align 8
  %5 = alloca i8, align 1
  %6 = alloca i32, align 4
  store ptr %0, ptr %4, align 8
  %7 = zext i1 %1 to i8
  store i8 %7, ptr %5, align 1
  store i32 %2, ptr %6, align 4
  %8 = load ptr, ptr %4, align 8
  %9 = load i8, ptr %5, align 1
  %10 = trunc i8 %9 to i1
  br i1 %10, label %11, label %20

11:                                               ; preds = %3
  %12 = getelementptr inbounds %class.PacketRangeGroupBox, ptr %8, i32 0, i32 2
  %13 = load ptr, ptr %12, align 8
  %14 = icmp ne ptr %13, null
  br i1 %14, label %15, label %20

15:                                               ; preds = %11
  %16 = load i32, ptr %6, align 4
  %17 = getelementptr inbounds %class.PacketRangeGroupBox, ptr %8, i32 0, i32 2
  %18 = load ptr, ptr %17, align 8
  %19 = getelementptr inbounds %struct.packet_range_tag, ptr %18, i32 0, i32 0
  store i32 %16, ptr %19, align 8
  br label %20

20:                                               ; preds = %15, %11, %3
  call void @_ZN19PacketRangeGroupBox12updateCountsEv(ptr noundef nonnull align 8 dereferenceable(60) %8)
  ret void
}

; Function Attrs: mustprogress uwtable
define void @_ZN19PacketRangeGroupBox25on_selectedButton_toggledEb(ptr noundef nonnull align 8 dereferenceable(60) %0, i1 noundef zeroext %1) #0 align 2 {
  %3 = alloca ptr, align 8
  %4 = alloca i8, align 1
  store ptr %0, ptr %3, align 8
  %5 = zext i1 %1 to i8
  store i8 %5, ptr %4, align 1
  %6 = load ptr, ptr %3, align 8
  %7 = load i8, ptr %4, align 1
  %8 = trunc i8 %7 to i1
  call void @_ZN19PacketRangeGroupBox20processButtonToggledEb14packet_range_e(ptr noundef nonnull align 8 dereferenceable(60) %6, i1 noundef zeroext %8, i32 noundef 1)
  ret void
}